; Function Attrs: mustprogress nofree norecurse nosync nounwind willreturn memory(argmem: write) uwtable
define void @_ZN5faiss18CenteringTransformC2Ei(ptr noundef nonnull writeonly align 8 captures(none) dereferenceable(48) initializes((0, 17), (24, 48)) %0, i32 noundef %1) unnamed_addr #17 align 2 {
  %3 = getelementptr inbounds nuw i8, ptr %0, i64 8
  store i32 %1, ptr %3, align 8, !tbaa !37
  %4 = getelementptr inbounds nuw i8, ptr %0, i64 12
  store i32 %1, ptr %4, align 4, !tbaa !29
  %5 = getelementptr inbounds nuw i8, ptr %0, i64 16
  store ptr getelementptr inbounds nuw inrange(-16, 48) (i8, ptr @_ZTVN5faiss18CenteringTransformE, i64 16), ptr %0, align 8, !tbaa !41
  %6 = getelementptr inbounds nuw i8, ptr %0, i64 24
  tail call void @llvm.memset.p0.i64(ptr noundef nonnull align 8 dereferenceable(24) %6, i8 0, i64 24, i1 false)
  store i8 0, ptr %5, align 8, !tbaa !16
  ret void
}